; Function Attrs: nounwind uwtable
define dso_local range(i32 0, 44) i32 @curl_mime_data_cb(ptr noundef %0, i64 noundef %1, ptr noundef %2, ptr noundef %3, ptr noundef %4, ptr noundef %5) local_unnamed_addr #0 {
  %.not = icmp eq ptr %0, null
  br i1 %.not, label %27, label %7

7:                                                ; preds = %6
  %8 = getelementptr inbounds nuw i8, ptr %0, i64 48
  %9 = load ptr, ptr %8, align 8, !tbaa !4
  %.not.i = icmp eq ptr %9, null
  br i1 %.not.i, label %cleanup_part_content.exit, label %10

10:                                               ; preds = %7
  %11 = getelementptr inbounds nuw i8, ptr %0, i64 56
  %12 = load ptr, ptr %11, align 8, !tbaa !19
  tail call void %9(ptr noundef %12) #18
  br label %cleanup_part_content.exit

cleanup_part_content.exit:                        ; preds = %7, %10
  %13 = getelementptr inbounds nuw i8, ptr %0, i64 32
  %14 = getelementptr inbounds nuw i8, ptr %0, i64 56
  tail call void @llvm.memset.p0.i64(ptr noundef nonnull align 8 dereferenceable(24) %13, i8 0, i64 24, i1 false)
  store ptr %0, ptr %14, align 8, !tbaa !19
  %15 = getelementptr inbounds nuw i8, ptr %0, i64 24
  store ptr null, ptr %15, align 8, !tbaa !20
  %16 = getelementptr inbounds nuw i8, ptr %0, i64 64
  store ptr null, ptr %16, align 8, !tbaa !21
  %17 = getelementptr inbounds nuw i8, ptr %0, i64 112
  store i64 0, ptr %17, align 8, !tbaa !22
  %18 = getelementptr inbounds nuw i8, ptr %0, i64 152
  tail call void @llvm.memset.p0.i64(ptr noundef nonnull align 8 dereferenceable(24) %18, i8 0, i64 24, i1 false)
  %19 = getelementptr inbounds nuw i8, ptr %0, i64 16
  store i32 0, ptr %19, align 8, !tbaa !23
  %20 = getelementptr inbounds nuw i8, ptr %0, i64 20
  %21 = load i32, ptr %20, align 4, !tbaa !24
  %22 = and i32 %21, -5
  store i32 %22, ptr %20, align 4, !tbaa !24
  %23 = getelementptr inbounds nuw i8, ptr %0, i64 432
  store i64 1, ptr %23, align 8, !tbaa !25
  %24 = getelementptr inbounds nuw i8, ptr %0, i64 120
  store i32 0, ptr %24, align 8, !tbaa !26
  %.not16 = icmp eq ptr %2, null
  br i1 %.not16, label %27, label %25

25:                                               ; preds = %cleanup_part_content.exit
  store ptr %2, ptr %13, align 8, !tbaa !39
  %26 = getelementptr inbounds nuw i8, ptr %0, i64 40
  store ptr %3, ptr %26, align 8, !tbaa !40
  store ptr %4, ptr %8, align 8, !tbaa !4
  store ptr %5, ptr %14, align 8, !tbaa !19
  store i64 %1, ptr %17, align 8, !tbaa !22
  store i32 3, ptr %19, align 8, !tbaa !23
  br label %27

27:                                               ; preds = %cleanup_part_content.exit, %25, %6
  %.0 = phi i32 [ 43, %6 ], [ 0, %25 ], [ 0, %cleanup_part_content.exit ]
  ret i32 %.0
}